; Function Attrs: mustprogress uwtable
define void @_ZN5Ipopt22BacktrackingLineSearch20StoreAcceptablePointEv(ptr noundef nonnull align 8 captures(none) dereferenceable(264) initializes((216, 220)) %0) local_unnamed_addr #6 align 2 personality ptr @__gxx_personality_v0 {
  %2 = getelementptr inbounds nuw i8, ptr %0, i64 32
  %3 = load ptr, ptr %2, align 8, !tbaa !39
  %4 = getelementptr inbounds nuw i8, ptr %3, i64 16
  %5 = load ptr, ptr %4, align 8, !tbaa !34, !noalias !238
  %.not.i.i.i.i = icmp eq ptr %5, null
  br i1 %.not.i.i.i.i, label %_ZNK5Ipopt9IpoptData4currEv.exit.thread, label %6

6:                                                ; preds = %1
  %7 = getelementptr inbounds nuw i8, ptr %5, i64 8
  %8 = load i32, ptr %7, align 8, !tbaa !3, !noalias !238
  %9 = add nsw i32 %8, 2
  store i32 %9, ptr %7, align 8, !tbaa !3
  br label %_ZNK5Ipopt9IpoptData4currEv.exit.thread

_ZNK5Ipopt9IpoptData4currEv.exit.thread:          ; preds = %1, %6
  %10 = getelementptr inbounds nuw i8, ptr %0, i64 208
  %11 = load ptr, ptr %10, align 8, !tbaa !34
  %.not.i.i.i.i2 = icmp eq ptr %11, null
  br i1 %.not.i.i.i.i2, label %21, label %12

12:                                               ; preds = %_ZNK5Ipopt9IpoptData4currEv.exit.thread
  %13 = getelementptr inbounds nuw i8, ptr %11, i64 8
  %14 = load i32, ptr %13, align 8, !tbaa !3
  %15 = add nsw i32 %14, -1
  store i32 %15, ptr %13, align 8, !tbaa !3
  %16 = icmp eq i32 %15, 0
  br i1 %16, label %17, label %21

17:                                               ; preds = %12
  %18 = load ptr, ptr %11, align 8, !tbaa !8
  %19 = getelementptr inbounds nuw i8, ptr %18, i64 8
  %20 = load ptr, ptr %19, align 8
  tail call void %20(ptr noundef nonnull align 8 dereferenceable(280) %11) #25
  br label %21

21:                                               ; preds = %17, %12, %_ZNK5Ipopt9IpoptData4currEv.exit.thread
  store ptr %5, ptr %10, align 8, !tbaa !34
  br i1 %.not.i.i.i.i, label %_ZN5Ipopt8SmartPtrIKNS_14IteratesVectorEED2Ev.exit, label %22

22:                                               ; preds = %21
  %23 = getelementptr inbounds nuw i8, ptr %5, i64 8
  %24 = load i32, ptr %23, align 8, !tbaa !3
  %25 = add nsw i32 %24, -1
  store i32 %25, ptr %23, align 8, !tbaa !3
  %26 = icmp eq i32 %25, 0
  br i1 %26, label %27, label %_ZN5Ipopt8SmartPtrIKNS_14IteratesVectorEED2Ev.exit

27:                                               ; preds = %22
  %28 = load ptr, ptr %5, align 8, !tbaa !8
  %29 = getelementptr inbounds nuw i8, ptr %28, i64 8
  %30 = load ptr, ptr %29, align 8
  tail call void %30(ptr noundef nonnull align 8 dereferenceable(280) %5) #25
  br label %_ZN5Ipopt8SmartPtrIKNS_14IteratesVectorEED2Ev.exit

_ZN5Ipopt8SmartPtrIKNS_14IteratesVectorEED2Ev.exit: ; preds = %21, %22, %27
  %31 = load ptr, ptr %2, align 8, !tbaa !39
  %32 = getelementptr inbounds nuw i8, ptr %31, i64 68
  %33 = load i32, ptr %32, align 4, !tbaa !67
  %34 = getelementptr inbounds nuw i8, ptr %0, i64 216
  store i32 %33, ptr %34, align 8, !tbaa !64
  ret void
}